; ModuleID = '40/2113.c'
source_filename = "40/2113.c"
target datalayout = "e-m:e-p270:32:32-p271:32:32-p272:64:64-i64:64-f80:128-n8:16:32:64-S128"
target triple = "x86_64-pc-linux-gnu"

@.str = private unnamed_addr constant [16 x i8] c"%lf%lf%lf%lf%lf\00", align 1
@.str.1 = private unnamed_addr constant [15 x i8] c"Invalid input\0A\00", align 1
@.str.2 = private unnamed_addr constant [7 x i8] c"%.4lf\0A\00", align 1

; Function Attrs: noinline nounwind uwtable
define dso_local void @main() #0 {
  %1 = alloca double, align 8
  %2 = alloca double, align 8
  %3 = alloca double, align 8
  %4 = alloca double, align 8
  %5 = alloca double, align 8
  %6 = alloca double, align 8
  %7 = alloca double, align 8
  %8 = alloca double, align 8
  store double 0x400921FB4D12D84A, double* %7, align 8
  %9 = call i32 (i8*, ...) @__isoc99_scanf(i8* getelementptr inbounds ([16 x i8], [16 x i8]* @.str, i64 0, i64 0), double* %1, double* %2, double* %3, double* %4, double* %6)
  %10 = load double, double* %1, align 8
  %11 = load double, double* %2, align 8
  %12 = fadd double %10, %11
  %13 = load double, double* %3, align 8
  %14 = fadd double %12, %13
  %15 = load double, double* %4, align 8
  %16 = fadd double %14, %15
  %17 = fdiv double %16, 2.000000e+00
  store double %17, double* %5, align 8
  %18 = load double, double* %6, align 8
  %19 = fdiv double %18, 3.600000e+02
  %20 = fmul double %19, 2.000000e+00
  %21 = load double, double* %7, align 8
  %22 = fmul double %20, %21
  store double %22, double* %6, align 8
  %23 = load double, double* %6, align 8
  %24 = fdiv double %23, 2.000000e+00
  store double %24, double* %6, align 8
  %25 = load double, double* %5, align 8
  %26 = load double, double* %1, align 8
  %27 = fsub double %25, %26
  %28 = load double, double* %5, align 8
  %29 = load double, double* %2, align 8
  %30 = fsub double %28, %29
  %31 = fmul double %27, %30
  %32 = load double, double* %5, align 8
  %33 = load double, double* %3, align 8
  %34 = fsub double %32, %33
  %35 = fmul double %31, %34
  %36 = load double, double* %5, align 8
  %37 = load double, double* %4, align 8
  %38 = fsub double %36, %37
  %39 = fmul double %35, %38
  %40 = load double, double* %1, align 8
  %41 = load double, double* %2, align 8
  %42 = fmul double %40, %41
  %43 = load double, double* %3, align 8
  %44 = fmul double %42, %43
  %45 = load double, double* %4, align 8
  %46 = fmul double %44, %45
  %47 = load double, double* %6, align 8
  %48 = call double @cos(double %47) #3
  %49 = fmul double %46, %48
  %50 = load double, double* %6, align 8
  %51 = call double @cos(double %50) #3
  %52 = fmul double %49, %51
  %53 = fsub double %39, %52
  store double %53, double* %8, align 8
  %54 = load double, double* %8, align 8
  %55 = fcmp olt double %54, 0.000000e+00
  br i1 %55, label %56, label %58

56:                                               ; preds = %0
  %57 = call i32 (i8*, ...) @printf(i8* getelementptr inbounds ([15 x i8], [15 x i8]* @.str.1, i64 0, i64 0))
  br label %58

58:                                               ; preds = %56, %0
  %59 = load double, double* %8, align 8
  %60 = fcmp ogt double %59, 0.000000e+00
  br i1 %60, label %61, label %66

61:                                               ; preds = %58
  %62 = load double, double* %8, align 8
  %63 = call double @sqrt(double %62) #3
  store double %63, double* %8, align 8
  %64 = load double, double* %8, align 8
  %65 = call i32 (i8*, ...) @printf(i8* getelementptr inbounds ([7 x i8], [7 x i8]* @.str.2, i64 0, i64 0), double %64)
  br label %66

66:                                               ; preds = %61, %58
  ret void
}

declare dso_local i32 @__isoc99_scanf(i8*, ...) #1

; Function Attrs: nounwind
declare dso_local double @cos(double) #2

declare dso_local i32 @printf(i8*, ...) #1

; Function Attrs: nounwind
declare dso_local double @sqrt(double) #2


!llvm.module.flags = !{!0}
!llvm.ident = !{!1}

!0 = !{i32 1, !"wchar_size", i32 4}
!1 = !{!"clang version 10.0.0-4ubuntu1 "}
